ASxxxx Linker V03.00 + NoICE + sdld,  page 1.
Hexadecimal  [32-Bits]

Area                                    Addr        Size        Decimal Bytes (Attributes)
--------------------------------        ----        ----        ------- ----- ------------
.  .ABS.                            00000000    00000000 =           0. bytes (ABS,CON)

      Value  Global                              Global Defined In Module
      -----  --------------------------------   ------------------------
     00000000  .__.ABS.                           cpct_random
     00000000  l__DATA                         
     00000006  max_entities                       cpct_keyboard
     000006D4  l__CODE                         
     00004000  s__CODE                         
     000046D4  s__DATA                         
ASxxxx Linker V03.00 + NoICE + sdld,  page 2.
Hexadecimal  [32-Bits]

Area                                    Addr        Size        Decimal Bytes (Attributes)
--------------------------------        ----        ----        ------- ----- ------------
_CODE                               00004000    000006D4 =        1748. bytes (REL,CON)

      Value  Global                              Global Defined In Module
      -----  --------------------------------   ------------------------
     0000400E  collider_update                    cpct_keyboard
     00004016  collider_one_pair                  cpct_keyboard
     0000402F  check_collision                    cpct_keyboard
     00004058  collider_check_type_iy             cpct_keyboard
     000040D6  collider_check_type_ix             cpct_keyboard
     0000417E  _num_entities                      cpct_keyboard
     0000417F  _last_elem_ptr                     cpct_keyboard
     00004181  _entity_array                      cpct_keyboard
     000041CF  E_M_init                           cpct_keyboard
     000041DA  E_M_new                            cpct_keyboard
     000041EB  E_M_create                         cpct_keyboard
     000041F7  E_M_getEntityArray                 cpct_keyboard
     000041FF  E_M_for_all_matching               cpct_keyboard
     00004252  E_M_for_all_pairs_matching         cpct_keyboard
     000042C6  enemy                              cpct_keyboard
     000042C6  t_enemy                            cpct_keyboard
     000042C7  cmp_enemy                          cpct_keyboard
     000042D2  enemy_col                          cpct_keyboard
     000042D3  enemy2                             cpct_keyboard
     000042E0  player                             cpct_keyboard
     000042E0  t_player                           cpct_keyboard
     000042E1  cmp_player                         cpct_keyboard
     000042EC  player_col                         cpct_keyboard
     000042ED  caja                               cpct_keyboard
     000042ED  t_caja                             cpct_keyboard
     000042EE  cmp_caja                           cpct_keyboard
     000042F9  caja_col                           cpct_keyboard
     00004304  man_game_init                      cpct_keyboard
     00004329  man_game_entity_creator            cpct_keyboard
     0000432D  man_game_update                    cpct_keyboard
     00004346  man_game_render                    cpct_keyboard
     0000434D  man_game_end                       cpct_keyboard
     00004376  ia_update_one_entity               
     000043A9  ia_update                          
     000043B9  input_init                         cpct_keyboard
     000043BA  input_update                       cpct_keyboard
     000043C2  input_update_one                   cpct_keyboard
     000043FD  _main                              cpct_keyboard
     00004414  physics_sys_init                   cpct_keyboard
     00004415  physics_sys_update                 cpct_keyboard
     0000441D  physics_sys_for_one                cpct_keyboard
     00004454  rendersys_init                     cpct_keyboard
     00004455  rendersys_update                   cpct_keyboard
     00004459  render_entities                    cpct_keyboard
     0000448C  render_delete_entity               cpct_keyboard
     0000449D  render_delete_static_entity        cpct_keyboard
     000044AE  _cpct_isKeyPressed                 cpct_keyboard
     000044AE  cpct_isKeyPressed_asm              cpct_keyboard
     000044BA  _cpct_scanKeyboard_f               cpct_keyboard
     000044BA  cpct_scanKeyboard_f_asm            cpct_keyboard
ASxxxx Linker V03.00 + NoICE + sdld,  page 3.
Hexadecimal  [32-Bits]

Area                                    Addr        Size        Decimal Bytes (Attributes)
--------------------------------        ----        ----        ------- ----- ------------
_CODE                               00004000    000006D4 =        1748. bytes (REL,CON)

      Value  Global                              Global Defined In Module
      -----  --------------------------------   ------------------------
     00004524  cpct_drawStringM0_asm              cpct_strings
     0000454A  cpct_drawCharM0_inner_asm          cpct_strings
     000045AA  dc_2pxtableM0                      cpct_strings
     000045AE  _cpct_keyboardStatusBuffer         cpct_keyboard
     000045B8  _cpct_waitVSYNC                    cpct_video
     000045B8  cpct_waitVSYNC_asm                 cpct_video
     000045C0  _cpct_disableFirmware              cpct_firmware
     000045C0  _cpct_removeInterruptHandler       cpct_firmware
     000045C0  cpct_disableFirmware_asm           cpct_firmware
     000045C0  cpct_removeInterruptHandler_asm    cpct_firmware
     000045D0  _cpct_getRandom_mxor_u8            cpct_random
     000045D0  cpct_getRandom_mxor_u8_asm         cpct_random
     000045D1  cpct_randomIdx_mxor_u8             cpct_random
     000045F5  cpct_drawSolidBox_asm              cpct_sprites
     00004698  _cpct_mode_rom_status              cpct_firmware
     00004699  cpct_getScreenPtr_asm              cpct_video
     000046AD  _cpct_mxor32_seed                  cpct_random
     000046B1  _cpct_nextRandom_mxor_u32          cpct_random
     000046B1  cpct_nextRandom_mxor_u32_asm       cpct_random
ASxxxx Linker V03.00 + NoICE + sdld,  page 4.

Files Linked                              [ module(s) ]

obj/animation.h.rel                       [  ]
obj/animation.rel                         [  ]
obj/collider.h.rel                        [  ]
obj/collider.rel                          [ cpct_keyboard ]
obj/cpct_func.h.rel                       [  ]
obj/ejemplo.rel                           [  ]
obj/entity.h.rel                          [  ]
obj/entity.rel                            [ cpct_keyboard ]
obj/game.h.rel                            [  ]
obj/game.rel                              [ cpct_keyboard ]
obj/ia.h.rel                              [  ]
obj/ia.rel                                [  ]
obj/input.h.rel                           [  ]
obj/input.rel                             [ cpct_keyboard ]
obj/main.rel                              [ cpct_keyboard ]
obj/physics.h.rel                         [  ]
obj/physics.rel                           [ cpct_keyboard ]
obj/render.h.rel                          [  ]
obj/render.rel                            [ cpct_keyboard ]


Libraries Linked                          [ object file ]

/home/javiers/Escritorio/CPCtelera/cpctelera/cpctelera/cpctelera.lib
                                          [ cpct_isKeyPressed.rel ]
/home/javiers/Escritorio/CPCtelera/cpctelera/cpctelera/cpctelera.lib
                                          [ cpct_scanKeyboard_f.rel ]
/home/javiers/Escritorio/CPCtelera/cpctelera/cpctelera/cpctelera.lib
                                          [ cpct_drawStringM0_asmbindings.re ]
/home/javiers/Escritorio/CPCtelera/cpctelera/cpctelera/cpctelera.lib
                                          [ cpct_drawCharM0_inner.rel ]
/home/javiers/Escritorio/CPCtelera/cpctelera/cpctelera/cpctelera.lib
                                          [ keyboard.rel ]
/home/javiers/Escritorio/CPCtelera/cpctelera/cpctelera/cpctelera.lib
                                          [ cpct_waitVSYNC.rel ]
/home/javiers/Escritorio/CPCtelera/cpctelera/cpctelera/cpctelera.lib
                                          [ cpct_removeInterruptHandler.rel ]
/home/javiers/Escritorio/CPCtelera/cpctelera/cpctelera/cpctelera.lib
                                          [ cpct_getRandom_mxor_u8.rel ]
/home/javiers/Escritorio/CPCtelera/cpctelera/cpctelera/cpctelera.lib
                                          [ cpct_drawSolidBox_asmbindings.re ]
/home/javiers/Escritorio/CPCtelera/cpctelera/cpctelera/cpctelera.lib
                                          [ cpc_mode_rom_status.rel ]
/home/javiers/Escritorio/CPCtelera/cpctelera/cpctelera/cpctelera.lib
                                          [ cpct_getScreenPtr_asmbindings.re ]
/home/javiers/Escritorio/CPCtelera/cpctelera/cpctelera/cpctelera.lib
                                          [ cpct_mxor32_seed.rel ]
/home/javiers/Escritorio/CPCtelera/cpctelera/cpctelera/cpctelera.lib
                                          [ cpct_nextRandom_mxor_u32.rel ]

ASxxxx Linker V03.00 + NoICE + sdld,  page 5.

User Base Address Definitions

_CODE = 0x4000
_DATA = 0x0000

